target datalayout = "e-m:e-p270:32:32-p271:32:32-p272:64:64-i64:64-i128:128-f80:128-n8:16:32:64-S128"
target triple = "x86_64-unknown-linux-gnu"

%"class.std::__cxx11::basic_string" = type { %"struct.std::__cxx11::basic_string<char>::_Alloc_hider", i64, %union.anon }
%"struct.std::__cxx11::basic_string<char>::_Alloc_hider" = type { ptr }
%union.anon = type { i64, [8 x i8] }
%"struct.YAML::Token" = type <{ i32, i32, %"struct.YAML::Mark", [4 x i8], %"class.std::__cxx11::basic_string", %"class.std::vector.55", i32, [4 x i8] }>
%"struct.YAML::Mark" = type { i32, i32, i32 }
%"class.std::vector.55" = type { %"struct.std::_Vector_base.56" }
%"struct.std::_Vector_base.56" = type { %"struct.std::_Vector_base<std::__cxx11::basic_string<char>, std::allocator<std::__cxx11::basic_string<char>>>::_Vector_impl" }
%"struct.std::_Vector_base<std::__cxx11::basic_string<char>, std::allocator<std::__cxx11::basic_string<char>>>::_Vector_impl" = type { %"struct.std::_Vector_base<std::__cxx11::basic_string<char>, std::allocator<std::__cxx11::basic_string<char>>>::_Vector_impl_data" }
%"struct.std::_Vector_base<std::__cxx11::basic_string<char>, std::allocator<std::__cxx11::basic_string<char>>>::_Vector_impl_data" = type { ptr, ptr, ptr }

@.str.19 = private unnamed_addr constant [4 x i8] c"TAG\00", align 1
@.str.21 = private unnamed_addr constant [5 x i8] c"YAML\00", align 1

; Function Attrs: mustprogress nounwind uwtable
define linkonce_odr noundef zeroext i1 @_ZSteqIcSt11char_traitsIcESaIcEEbRKNSt7__cxx1112basic_stringIT_T0_T1_EEPKS5_(ptr noundef nonnull align 8 dereferenceable(32) %__lhs, ptr noundef %__rhs) #4 comdat {
entry:
  %__lhs.addr = alloca ptr, align 8
  %__rhs.addr = alloca ptr, align 8
  store ptr %__lhs, ptr %__lhs.addr, align 8
  store ptr %__rhs, ptr %__rhs.addr, align 8
  %0 = load ptr, ptr %__lhs.addr, align 8
  %1 = load ptr, ptr %__rhs.addr, align 8
  %call = call noundef i32 @_ZNKSt7__cxx1112basic_stringIcSt11char_traitsIcESaIcEE7compareEPKc(ptr noundef nonnull align 8 dereferenceable(32) %0, ptr noundef %1) #3
  %cmp = icmp eq i32 %call, 0
  ret i1 %cmp
}

; Function Attrs: mustprogress uwtable
define void @_ZN4YAML6Parser15HandleDirectiveERKNS_5TokenE(ptr noundef nonnull align 8 dereferenceable(16) %this, ptr noundef nonnull align 8 dereferenceable(84) %token) #5 align 2 {
entry:
  %this.addr = alloca ptr, align 8
  %token.addr = alloca ptr, align 8
  store ptr %this, ptr %this.addr, align 8
  store ptr %token, ptr %token.addr, align 8
  %this1 = load ptr, ptr %this.addr, align 8
  %0 = load ptr, ptr %token.addr, align 8
  %value = getelementptr inbounds %"struct.YAML::Token", ptr %0, i32 0, i32 4
  %call = call noundef zeroext i1 @_ZSteqIcSt11char_traitsIcESaIcEEbRKNSt7__cxx1112basic_stringIT_T0_T1_EEPKS5_(ptr noundef nonnull align 8 dereferenceable(32) %value, ptr noundef @.str.21)
  br i1 %call, label %if.then, label %if.else

if.then:                                          ; preds = %entry
  %1 = load ptr, ptr %token.addr, align 8
  call void @_ZN4YAML6Parser19HandleYamlDirectiveERKNS_5TokenE(ptr noundef nonnull align 8 dereferenceable(16) %this1, ptr noundef nonnull align 8 dereferenceable(84) %1)
  br label %if.end5

if.else:                                          ; preds = %entry
  %2 = load ptr, ptr %token.addr, align 8
  %value2 = getelementptr inbounds %"struct.YAML::Token", ptr %2, i32 0, i32 4
  %call3 = call noundef zeroext i1 @_ZSteqIcSt11char_traitsIcESaIcEEbRKNSt7__cxx1112basic_stringIT_T0_T1_EEPKS5_(ptr noundef nonnull align 8 dereferenceable(32) %value2, ptr noundef @.str.19)
  br i1 %call3, label %if.then4, label %if.end

if.then4:                                         ; preds = %if.else
  %3 = load ptr, ptr %token.addr, align 8
  call void @_ZN4YAML6Parser18HandleTagDirectiveERKNS_5TokenE(ptr noundef nonnull align 8 dereferenceable(16) %this1, ptr noundef nonnull align 8 dereferenceable(84) %3)
  br label %if.end

if.end:                                           ; preds = %if.then4, %if.else
  br label %if.end5

if.end5:                                          ; preds = %if.end, %if.then
  ret void
}