; Function Attrs: mustprogress uwtable
define void @_ZN4YAML6Parser15HandleDirectiveERKNS_5TokenE(ptr nocapture noundef nonnull readonly align 8 dereferenceable(16) %this, ptr noundef nonnull align 8 dereferenceable(84) %token) local_unnamed_addr #5 align 2 {
entry:
  %value = getelementptr inbounds i8, ptr %token, i64 24
  %call.i = tail call noundef i32 @_ZNKSt7__cxx1112basic_stringIcSt11char_traitsIcESaIcEE7compareEPKc(ptr noundef nonnull align 8 dereferenceable(32) %value, ptr noundef nonnull @.str.21) #15
  %cmp.i = icmp eq i32 %call.i, 0
  br i1 %cmp.i, label %if.then, label %if.else

if.then:                                          ; preds = %entry
  tail call void @_ZN4YAML6Parser19HandleYamlDirectiveERKNS_5TokenE(ptr noundef nonnull align 8 dereferenceable(16) %this, ptr noundef nonnull align 8 dereferenceable(84) %token)
  br label %if.end5

if.else:                                          ; preds = %entry
  %call.i4 = tail call noundef i32 @_ZNKSt7__cxx1112basic_stringIcSt11char_traitsIcESaIcEE7compareEPKc(ptr noundef nonnull align 8 dereferenceable(32) %value, ptr noundef nonnull @.str.19) #15
  %cmp.i5 = icmp eq i32 %call.i4, 0
  br i1 %cmp.i5, label %if.then4, label %if.end5

if.then4:                                         ; preds = %if.else
  tail call void @_ZN4YAML6Parser18HandleTagDirectiveERKNS_5TokenE(ptr noundef nonnull align 8 dereferenceable(16) %this, ptr noundef nonnull align 8 dereferenceable(84) %token)
  br label %if.end5

if.end5:                                          ; preds = %if.else, %if.then4, %if.then
  ret void
}